; Function Attrs: nounwind uwtable
define hidden void @spl_add_traits(ptr nocapture noundef readonly %0, ptr nocapture noundef readonly %1, i32 noundef %2, i32 noundef %3) local_unnamed_addr #0 {
  %5 = alloca %struct._zval_struct, align 8
  %6 = getelementptr inbounds i8, ptr %1, i64 428
  %7 = load i32, ptr %6, align 4
  %.not = icmp eq i32 %7, 0
  br i1 %.not, label %._crit_edge, label %.lr.ph

.lr.ph:                                           ; preds = %4
  %8 = getelementptr inbounds i8, ptr %1, i64 440
  %.not.i = icmp eq i32 %2, 0
  %9 = getelementptr inbounds i8, ptr %5, i64 8
  br i1 %.not.i, label %.lr.ph.split.us, label %.lr.ph.split

.lr.ph.split.us:                                  ; preds = %.lr.ph, %spl_add_class_name.exit.us
  %indvars.iv23 = phi i64 [ %indvars.iv.next24, %spl_add_class_name.exit.us ], [ 0, %.lr.ph ]
  %10 = load ptr, ptr %8, align 8
  %11 = getelementptr inbounds %struct._zend_class_name, ptr %10, i64 %indvars.iv23
  %12 = load ptr, ptr %11, align 8
  %13 = getelementptr inbounds i8, ptr %11, i64 8
  %14 = load ptr, ptr %13, align 8
  %15 = call ptr @zend_fetch_class_by_name(ptr noundef %12, ptr noundef %14, i32 noundef 6) #4
  %16 = icmp ne ptr %15, null
  call void @llvm.assume(i1 %16)
  call void @llvm.lifetime.start.p0(i64 16, ptr nonnull %5)
  %17 = load ptr, ptr %0, align 8
  %18 = getelementptr inbounds i8, ptr %15, i64 8
  %19 = load ptr, ptr %18, align 8
  %20 = call ptr @zend_hash_find(ptr noundef %17, ptr noundef %19) #4
  %21 = icmp eq ptr %20, null
  br i1 %21, label %22, label %spl_add_class_name.exit.us

22:                                               ; preds = %.lr.ph.split.us
  %23 = load ptr, ptr %18, align 8
  store ptr %23, ptr %5, align 8
  %24 = getelementptr inbounds i8, ptr %23, i64 4
  %25 = load i32, ptr %24, align 4
  %26 = and i32 %25, 64
  %.not21.i.us = icmp eq i32 %26, 0
  br i1 %.not21.i.us, label %27, label %30

27:                                               ; preds = %22
  %28 = load i32, ptr %23, align 4
  %29 = add i32 %28, 1
  store i32 %29, ptr %23, align 4
  %.pre.i.us = load ptr, ptr %18, align 8
  br label %30

30:                                               ; preds = %27, %22
  %31 = phi ptr [ %.pre.i.us, %27 ], [ %23, %22 ]
  %.sink.i.us = phi i32 [ 262, %27 ], [ 6, %22 ]
  store i32 %.sink.i.us, ptr %9, align 8
  %32 = load ptr, ptr %0, align 8
  %33 = call ptr @zend_hash_add(ptr noundef %32, ptr noundef %31, ptr noundef nonnull %5) #4
  br label %spl_add_class_name.exit.us

spl_add_class_name.exit.us:                       ; preds = %30, %.lr.ph.split.us
  call void @llvm.lifetime.end.p0(i64 16, ptr nonnull %5)
  %indvars.iv.next24 = add nuw nsw i64 %indvars.iv23, 1
  %34 = load i32, ptr %6, align 4
  %35 = zext i32 %34 to i64
  %36 = icmp ult i64 %indvars.iv.next24, %35
  br i1 %36, label %.lr.ph.split.us, label %._crit_edge

.lr.ph.split:                                     ; preds = %.lr.ph
  %37 = icmp sgt i32 %2, 0
  br i1 %37, label %.lr.ph.split.split.us, label %.lr.ph.split.split

.lr.ph.split.split.us:                            ; preds = %.lr.ph.split, %spl_add_class_name.exit.us16
  %indvars.iv20 = phi i64 [ %indvars.iv.next21, %spl_add_class_name.exit.us16 ], [ 0, %.lr.ph.split ]
  %38 = load ptr, ptr %8, align 8
  %39 = getelementptr inbounds %struct._zend_class_name, ptr %38, i64 %indvars.iv20
  %40 = load ptr, ptr %39, align 8
  %41 = getelementptr inbounds i8, ptr %39, i64 8
  %42 = load ptr, ptr %41, align 8
  %43 = call ptr @zend_fetch_class_by_name(ptr noundef %40, ptr noundef %42, i32 noundef 6) #4
  %44 = icmp ne ptr %43, null
  call void @llvm.assume(i1 %44)
  call void @llvm.lifetime.start.p0(i64 16, ptr nonnull %5)
  %45 = getelementptr inbounds i8, ptr %43, i64 28
  %46 = load i32, ptr %45, align 4
  %47 = and i32 %46, %3
  %.not19.i.us = icmp eq i32 %47, 0
  br i1 %.not19.i.us, label %spl_add_class_name.exit.us16, label %48

48:                                               ; preds = %.lr.ph.split.split.us
  %49 = load ptr, ptr %0, align 8
  %50 = getelementptr inbounds i8, ptr %43, i64 8
  %51 = load ptr, ptr %50, align 8
  %52 = call ptr @zend_hash_find(ptr noundef %49, ptr noundef %51) #4
  %53 = icmp eq ptr %52, null
  br i1 %53, label %54, label %spl_add_class_name.exit.us16

54:                                               ; preds = %48
  %55 = load ptr, ptr %50, align 8
  store ptr %55, ptr %5, align 8
  %56 = getelementptr inbounds i8, ptr %55, i64 4
  %57 = load i32, ptr %56, align 4
  %58 = and i32 %57, 64
  %.not21.i.us13 = icmp eq i32 %58, 0
  br i1 %.not21.i.us13, label %59, label %62

59:                                               ; preds = %54
  %60 = load i32, ptr %55, align 4
  %61 = add i32 %60, 1
  store i32 %61, ptr %55, align 4
  %.pre.i.us14 = load ptr, ptr %50, align 8
  br label %62

62:                                               ; preds = %59, %54
  %63 = phi ptr [ %.pre.i.us14, %59 ], [ %55, %54 ]
  %.sink.i.us15 = phi i32 [ 262, %59 ], [ 6, %54 ]
  store i32 %.sink.i.us15, ptr %9, align 8
  %64 = load ptr, ptr %0, align 8
  %65 = call ptr @zend_hash_add(ptr noundef %64, ptr noundef %63, ptr noundef nonnull %5) #4
  br label %spl_add_class_name.exit.us16

spl_add_class_name.exit.us16:                     ; preds = %62, %48, %.lr.ph.split.split.us
  call void @llvm.lifetime.end.p0(i64 16, ptr nonnull %5)
  %indvars.iv.next21 = add nuw nsw i64 %indvars.iv20, 1
  %66 = load i32, ptr %6, align 4
  %67 = zext i32 %66 to i64
  %68 = icmp ult i64 %indvars.iv.next21, %67
  br i1 %68, label %.lr.ph.split.split.us, label %._crit_edge

.lr.ph.split.split:                               ; preds = %.lr.ph.split, %spl_add_class_name.exit
  %indvars.iv = phi i64 [ %indvars.iv.next, %spl_add_class_name.exit ], [ 0, %.lr.ph.split ]
  %69 = load ptr, ptr %8, align 8
  %70 = getelementptr inbounds %struct._zend_class_name, ptr %69, i64 %indvars.iv
  %71 = load ptr, ptr %70, align 8
  %72 = getelementptr inbounds i8, ptr %70, i64 8
  %73 = load ptr, ptr %72, align 8
  %74 = call ptr @zend_fetch_class_by_name(ptr noundef %71, ptr noundef %73, i32 noundef 6) #4
  %75 = icmp ne ptr %74, null
  call void @llvm.assume(i1 %75)
  call void @llvm.lifetime.start.p0(i64 16, ptr nonnull %5)
  %76 = getelementptr inbounds i8, ptr %74, i64 28
  %77 = load i32, ptr %76, align 4
  %78 = and i32 %77, %3
  %.not19.i = icmp eq i32 %78, 0
  br i1 %.not19.i, label %79, label %spl_add_class_name.exit

79:                                               ; preds = %.lr.ph.split.split
  %80 = load ptr, ptr %0, align 8
  %81 = getelementptr inbounds i8, ptr %74, i64 8
  %82 = load ptr, ptr %81, align 8
  %83 = call ptr @zend_hash_find(ptr noundef %80, ptr noundef %82) #4
  %84 = icmp eq ptr %83, null
  br i1 %84, label %85, label %spl_add_class_name.exit

85:                                               ; preds = %79
  %86 = load ptr, ptr %81, align 8
  store ptr %86, ptr %5, align 8
  %87 = getelementptr inbounds i8, ptr %86, i64 4
  %88 = load i32, ptr %87, align 4
  %89 = and i32 %88, 64
  %.not21.i = icmp eq i32 %89, 0
  br i1 %.not21.i, label %90, label %93

90:                                               ; preds = %85
  %91 = load i32, ptr %86, align 4
  %92 = add i32 %91, 1
  store i32 %92, ptr %86, align 4
  %.pre.i = load ptr, ptr %81, align 8
  br label %93

93:                                               ; preds = %90, %85
  %94 = phi ptr [ %.pre.i, %90 ], [ %86, %85 ]
  %.sink.i = phi i32 [ 262, %90 ], [ 6, %85 ]
  store i32 %.sink.i, ptr %9, align 8
  %95 = load ptr, ptr %0, align 8
  %96 = call ptr @zend_hash_add(ptr noundef %95, ptr noundef %94, ptr noundef nonnull %5) #4
  br label %spl_add_class_name.exit

spl_add_class_name.exit:                          ; preds = %.lr.ph.split.split, %79, %93
  call void @llvm.lifetime.end.p0(i64 16, ptr nonnull %5)
  %indvars.iv.next = add nuw nsw i64 %indvars.iv, 1
  %97 = load i32, ptr %6, align 4
  %98 = zext i32 %97 to i64
  %99 = icmp ult i64 %indvars.iv.next, %98
  br i1 %99, label %.lr.ph.split.split, label %._crit_edge

._crit_edge:                                      ; preds = %spl_add_class_name.exit, %spl_add_class_name.exit.us16, %spl_add_class_name.exit.us, %4
  ret void
}